target datalayout = "e-m:e-p270:32:32-p271:32:32-p272:64:64-i64:64-i128:128-f80:128-n8:16:32:64-S128"
target triple = "x86_64-pc-linux-gnu"

%"class.(anonymous namespace)::GOFFOstream" = type <{ %"class.llvm::raw_ostream", ptr, i64, i32, i8, i8, [77 x i8], [5 x i8] }>
%"class.llvm::raw_ostream" = type { ptr, i32, ptr, ptr, ptr, i8, i32 }

; Function Attrs: mustprogress nounwind uwtable
define linkonce_odr hidden noundef nonnull align 8 dereferenceable(48) ptr @_ZN4llvm11raw_ostreamlsEh(ptr noundef nonnull align 8 dereferenceable(48) %0, i8 noundef zeroext %1) #0 comdat align 2 {
  %3 = alloca ptr, align 8
  %4 = alloca ptr, align 8
  %5 = alloca i8, align 1
  store ptr %0, ptr %4, align 8
  store i8 %1, ptr %5, align 1
  %6 = load ptr, ptr %4, align 8
  %7 = getelementptr inbounds nuw %"class.llvm::raw_ostream", ptr %6, i32 0, i32 4
  %8 = load ptr, ptr %7, align 8
  %9 = getelementptr inbounds nuw %"class.llvm::raw_ostream", ptr %6, i32 0, i32 3
  %10 = load ptr, ptr %9, align 8
  %11 = icmp uge ptr %8, %10
  br i1 %11, label %12, label %15

12:                                               ; preds = %2
  %13 = load i8, ptr %5, align 1
  %14 = call noundef nonnull align 8 dereferenceable(48) ptr @_ZN4llvm11raw_ostream5writeEh(ptr noundef nonnull align 8 dereferenceable(48) %6, i8 noundef zeroext %13)
  store ptr %14, ptr %3, align 8
  br label %20

15:                                               ; preds = %2
  %16 = load i8, ptr %5, align 1
  %17 = getelementptr inbounds nuw %"class.llvm::raw_ostream", ptr %6, i32 0, i32 4
  %18 = load ptr, ptr %17, align 8
  %19 = getelementptr inbounds i8, ptr %18, i32 1
  store ptr %19, ptr %17, align 8
  store i8 %16, ptr %18, align 1
  store ptr %6, ptr %3, align 8
  br label %20

20:                                               ; preds = %15, %12
  %21 = load ptr, ptr %3, align 8
  ret ptr %21
}

; Function Attrs: mustprogress nounwind uwtable
define internal noundef i64 @_ZN12_GLOBAL__N_111GOFFOstream25bytesToNextPhysicalRecordEv(ptr noundef nonnull align 8 dereferenceable(147) %0) #0 align 2 {
  %2 = alloca ptr, align 8
  %3 = alloca i64, align 8
  store ptr %0, ptr %2, align 8
  %4 = load ptr, ptr %2, align 8
  %5 = getelementptr inbounds nuw %"class.(anonymous namespace)::GOFFOstream", ptr %4, i32 0, i32 2
  %6 = load i64, ptr %5, align 8
  %7 = urem i64 %6, 77
  store i64 %7, ptr %3, align 8
  %8 = load i64, ptr %3, align 8
  %9 = icmp ne i64 %8, 0
  br i1 %9, label %10, label %12

10:                                               ; preds = %1
  %11 = load i64, ptr %3, align 8
  br label %13

12:                                               ; preds = %1
  br label %13

13:                                               ; preds = %12, %10
  %14 = phi i64 [ %11, %10 ], [ 77, %12 ]
  ret i64 %14
}

; Function Attrs: mustprogress nounwind uwtable
define internal void @_ZN12_GLOBAL__N_111GOFFOstream17writeRecordPrefixERN4llvm11raw_ostreamENS1_4GOFF10RecordTypeEmh(ptr noundef nonnull align 8 dereferenceable(48) %0, i8 noundef zeroext %1, i64 noundef %2, i8 noundef zeroext %3) #0 align 2 {
  %5 = alloca ptr, align 8
  %6 = alloca i8, align 1
  %7 = alloca i64, align 8
  %8 = alloca i8, align 1
  %9 = alloca i8, align 1
  store ptr %0, ptr %5, align 8
  store i8 %1, ptr %6, align 1
  store i64 %2, ptr %7, align 8
  store i8 %3, ptr %8, align 1
  %10 = load i8, ptr %8, align 1
  %11 = zext i8 %10 to i32
  %12 = load i8, ptr %6, align 1
  %13 = zext i8 %12 to i32
  %14 = shl i32 %13, 4
  %15 = or i32 %11, %14
  %16 = trunc i32 %15 to i8
  store i8 %16, ptr %9, align 1
  %17 = load i64, ptr %7, align 8
  %18 = icmp ugt i64 %17, 80
  br i1 %18, label %19, label %24

19:                                               ; preds = %4
  %20 = load i8, ptr %9, align 1
  %21 = zext i8 %20 to i32
  %22 = or i32 %21, 1
  %23 = trunc i32 %22 to i8
  store i8 %23, ptr %9, align 1
  br label %24

24:                                               ; preds = %19, %4
  %25 = load ptr, ptr %5, align 8
  %26 = call noundef nonnull align 8 dereferenceable(48) ptr @_ZN4llvm11raw_ostreamlsEh(ptr noundef nonnull align 8 dereferenceable(48) %25, i8 noundef zeroext 3)
  %27 = load i8, ptr %9, align 1
  %28 = call noundef nonnull align 8 dereferenceable(48) ptr @_ZN4llvm11raw_ostreamlsEh(ptr noundef nonnull align 8 dereferenceable(48) %26, i8 noundef zeroext %27)
  %29 = call noundef nonnull align 8 dereferenceable(48) ptr @_ZN4llvm11raw_ostreamlsEh(ptr noundef nonnull align 8 dereferenceable(48) %28, i8 noundef zeroext 0)
  ret void
}

; Function Attrs: mustprogress nounwind uwtable
define internal void @_ZN12_GLOBAL__N_111GOFFOstream10write_implEPKcm(ptr noundef nonnull align 8 dereferenceable(147) %0, ptr noundef %1, i64 noundef %2) unnamed_addr #0 align 2 {
  %4 = alloca ptr, align 8
  %5 = alloca ptr, align 8
  %6 = alloca i64, align 8
  %7 = alloca i64, align 8
  %8 = alloca i64, align 8
  store ptr %0, ptr %4, align 8
  store ptr %1, ptr %5, align 8
  store i64 %2, ptr %6, align 8
  %9 = load ptr, ptr %4, align 8
  %10 = getelementptr inbounds nuw %"class.(anonymous namespace)::GOFFOstream", ptr %9, i32 0, i32 2
  %11 = load i64, ptr %10, align 8
  %12 = urem i64 %11, 77
  %13 = icmp ne i64 %12, 0
  br i1 %13, label %27, label %14

14:                                               ; preds = %3
  %15 = getelementptr inbounds nuw %"class.(anonymous namespace)::GOFFOstream", ptr %9, i32 0, i32 1
  %16 = load ptr, ptr %15, align 8
  %17 = getelementptr inbounds nuw %"class.(anonymous namespace)::GOFFOstream", ptr %9, i32 0, i32 4
  %18 = load i8, ptr %17, align 4
  %19 = getelementptr inbounds nuw %"class.(anonymous namespace)::GOFFOstream", ptr %9, i32 0, i32 2
  %20 = load i64, ptr %19, align 8
  %21 = getelementptr inbounds nuw %"class.(anonymous namespace)::GOFFOstream", ptr %9, i32 0, i32 5
  %22 = load i8, ptr %21, align 1
  %23 = trunc i8 %22 to i1
  %24 = select i1 %23, i32 0, i32 2
  %25 = trunc i32 %24 to i8
  call void @_ZN12_GLOBAL__N_111GOFFOstream17writeRecordPrefixERN4llvm11raw_ostreamENS1_4GOFF10RecordTypeEmh(ptr noundef nonnull align 8 dereferenceable(48) %16, i8 noundef zeroext %18, i64 noundef %20, i8 noundef zeroext %25)
  %26 = getelementptr inbounds nuw %"class.(anonymous namespace)::GOFFOstream", ptr %9, i32 0, i32 5
  store i8 0, ptr %26, align 1
  br label %27

27:                                               ; preds = %14, %3
  store i64 0, ptr %7, align 8
  br label %28

28:                                               ; preds = %65, %27
  %29 = load i64, ptr %6, align 8
  %30 = icmp ugt i64 %29, 0
  br i1 %30, label %31, label %66

31:                                               ; preds = %28
  %32 = call noundef i64 @_ZN12_GLOBAL__N_111GOFFOstream25bytesToNextPhysicalRecordEv(ptr noundef nonnull align 8 dereferenceable(147) %9)
  store i64 %32, ptr %8, align 8
  %33 = load i64, ptr %8, align 8
  %34 = load i64, ptr %6, align 8
  %35 = icmp ugt i64 %33, %34
  br i1 %35, label %36, label %38

36:                                               ; preds = %31
  %37 = load i64, ptr %6, align 8
  store i64 %37, ptr %8, align 8
  br label %38

38:                                               ; preds = %36, %31
  %39 = getelementptr inbounds nuw %"class.(anonymous namespace)::GOFFOstream", ptr %9, i32 0, i32 1
  %40 = load ptr, ptr %39, align 8
  %41 = load ptr, ptr %5, align 8
  %42 = load i64, ptr %7, align 8
  %43 = getelementptr inbounds i8, ptr %41, i64 %42
  %44 = load i64, ptr %8, align 8
  %45 = call noundef nonnull align 8 dereferenceable(48) ptr @_ZN4llvm11raw_ostream5writeEPKcm(ptr noundef nonnull align 8 dereferenceable(48) %40, ptr noundef %43, i64 noundef %44)
  %46 = load i64, ptr %8, align 8
  %47 = load i64, ptr %7, align 8
  %48 = add i64 %47, %46
  store i64 %48, ptr %7, align 8
  %49 = load i64, ptr %8, align 8
  %50 = load i64, ptr %6, align 8
  %51 = sub i64 %50, %49
  store i64 %51, ptr %6, align 8
  %52 = load i64, ptr %8, align 8
  %53 = getelementptr inbounds nuw %"class.(anonymous namespace)::GOFFOstream", ptr %9, i32 0, i32 2
  %54 = load i64, ptr %53, align 8
  %55 = sub i64 %54, %52
  store i64 %55, ptr %53, align 8
  %56 = load i64, ptr %6, align 8
  %57 = icmp ne i64 %56, 0
  br i1 %57, label %58, label %65

58:                                               ; preds = %38
  %59 = getelementptr inbounds nuw %"class.(anonymous namespace)::GOFFOstream", ptr %9, i32 0, i32 1
  %60 = load ptr, ptr %59, align 8
  %61 = getelementptr inbounds nuw %"class.(anonymous namespace)::GOFFOstream", ptr %9, i32 0, i32 4
  %62 = load i8, ptr %61, align 4
  %63 = getelementptr inbounds nuw %"class.(anonymous namespace)::GOFFOstream", ptr %9, i32 0, i32 2
  %64 = load i64, ptr %63, align 8
  call void @_ZN12_GLOBAL__N_111GOFFOstream17writeRecordPrefixERN4llvm11raw_ostreamENS1_4GOFF10RecordTypeEmh(ptr noundef nonnull align 8 dereferenceable(48) %60, i8 noundef zeroext %62, i64 noundef %64, i8 noundef zeroext 2)
  br label %65

65:                                               ; preds = %58, %38
  br label %28, !llvm.loop !4

66:                                               ; preds = %28
  ret void
}