; Function Attrs: mustprogress nounwind uwtable
define internal void @_ZN12_GLOBAL__N_111GOFFOstream10write_implEPKcm(ptr nocapture noundef nonnull align 8 dereferenceable(147) %0, ptr noundef %1, i64 noundef %2) unnamed_addr #0 align 2 {
  %4 = getelementptr inbounds nuw i8, ptr %0, i64 56
  %5 = load i64, ptr %4, align 8
  %6 = urem i64 %5, 77
  %.not = icmp eq i64 %6, 0
  br i1 %.not, label %7, label %44

7:                                                ; preds = %3
  %8 = getelementptr inbounds nuw i8, ptr %0, i64 48
  %9 = load ptr, ptr %8, align 8
  %10 = getelementptr inbounds nuw i8, ptr %0, i64 68
  %11 = load i8, ptr %10, align 4
  %12 = getelementptr inbounds nuw i8, ptr %0, i64 69
  %13 = load i8, ptr %12, align 1
  %14 = trunc i8 %13 to i1
  %15 = select i1 %14, i8 0, i8 2
  %16 = shl i8 %11, 4
  %17 = or disjoint i8 %15, %16
  %18 = icmp ugt i64 %5, 80
  %19 = zext i1 %18 to i8
  %spec.select.i = or disjoint i8 %17, %19
  %20 = getelementptr inbounds nuw i8, ptr %9, i64 32
  %21 = load ptr, ptr %20, align 8
  %22 = getelementptr inbounds nuw i8, ptr %9, i64 24
  %23 = load ptr, ptr %22, align 8
  %.not.i.i = icmp ult ptr %21, %23
  br i1 %.not.i.i, label %26, label %24

24:                                               ; preds = %7
  %25 = tail call noundef nonnull align 8 dereferenceable(48) ptr @_ZN4llvm11raw_ostream5writeEh(ptr noundef nonnull align 8 dereferenceable(48) %9, i8 noundef zeroext 3) #10
  br label %_ZN4llvm11raw_ostreamlsEh.exit.i

26:                                               ; preds = %7
  %27 = getelementptr inbounds i8, ptr %21, i64 1
  store ptr %27, ptr %20, align 8
  store i8 3, ptr %21, align 1
  br label %_ZN4llvm11raw_ostreamlsEh.exit.i

_ZN4llvm11raw_ostreamlsEh.exit.i:                 ; preds = %26, %24
  %.0.i.i = phi ptr [ %25, %24 ], [ %9, %26 ]
  %28 = getelementptr inbounds nuw i8, ptr %.0.i.i, i64 32
  %29 = load ptr, ptr %28, align 8
  %30 = getelementptr inbounds nuw i8, ptr %.0.i.i, i64 24
  %31 = load ptr, ptr %30, align 8
  %.not.i5.i = icmp ult ptr %29, %31
  br i1 %.not.i5.i, label %34, label %32

32:                                               ; preds = %_ZN4llvm11raw_ostreamlsEh.exit.i
  %33 = tail call noundef nonnull align 8 dereferenceable(48) ptr @_ZN4llvm11raw_ostream5writeEh(ptr noundef nonnull align 8 dereferenceable(48) %.0.i.i, i8 noundef zeroext %spec.select.i) #10
  br label %_ZN4llvm11raw_ostreamlsEh.exit7.i

34:                                               ; preds = %_ZN4llvm11raw_ostreamlsEh.exit.i
  %35 = getelementptr inbounds i8, ptr %29, i64 1
  store ptr %35, ptr %28, align 8
  store i8 %spec.select.i, ptr %29, align 1
  br label %_ZN4llvm11raw_ostreamlsEh.exit7.i

_ZN4llvm11raw_ostreamlsEh.exit7.i:                ; preds = %34, %32
  %.0.i6.i = phi ptr [ %33, %32 ], [ %.0.i.i, %34 ]
  %36 = getelementptr inbounds nuw i8, ptr %.0.i6.i, i64 32
  %37 = load ptr, ptr %36, align 8
  %38 = getelementptr inbounds nuw i8, ptr %.0.i6.i, i64 24
  %39 = load ptr, ptr %38, align 8
  %.not.i8.i = icmp ult ptr %37, %39
  br i1 %.not.i8.i, label %42, label %40

40:                                               ; preds = %_ZN4llvm11raw_ostreamlsEh.exit7.i
  %41 = tail call noundef nonnull align 8 dereferenceable(48) ptr @_ZN4llvm11raw_ostream5writeEh(ptr noundef nonnull align 8 dereferenceable(48) %.0.i6.i, i8 noundef zeroext 0) #10
  br label %_ZN12_GLOBAL__N_111GOFFOstream17writeRecordPrefixERN4llvm11raw_ostreamENS1_4GOFF10RecordTypeEmh.exit

42:                                               ; preds = %_ZN4llvm11raw_ostreamlsEh.exit7.i
  %43 = getelementptr inbounds i8, ptr %37, i64 1
  store ptr %43, ptr %36, align 8
  store i8 0, ptr %37, align 1
  br label %_ZN12_GLOBAL__N_111GOFFOstream17writeRecordPrefixERN4llvm11raw_ostreamENS1_4GOFF10RecordTypeEmh.exit

_ZN12_GLOBAL__N_111GOFFOstream17writeRecordPrefixERN4llvm11raw_ostreamENS1_4GOFF10RecordTypeEmh.exit: ; preds = %40, %42
  store i8 0, ptr %12, align 1
  br label %44

44:                                               ; preds = %_ZN12_GLOBAL__N_111GOFFOstream17writeRecordPrefixERN4llvm11raw_ostreamENS1_4GOFF10RecordTypeEmh.exit, %3
  %.not1627 = icmp eq i64 %2, 0
  br i1 %.not1627, label %._crit_edge, label %.lr.ph

.lr.ph:                                           ; preds = %44
  %45 = getelementptr inbounds nuw i8, ptr %0, i64 48
  %46 = getelementptr inbounds nuw i8, ptr %0, i64 68
  br label %_ZN12_GLOBAL__N_111GOFFOstream17writeRecordPrefixERN4llvm11raw_ostreamENS1_4GOFF10RecordTypeEmh.exit26

_ZN12_GLOBAL__N_111GOFFOstream17writeRecordPrefixERN4llvm11raw_ostreamENS1_4GOFF10RecordTypeEmh.exit26: ; preds = %_ZN12_GLOBAL__N_111GOFFOstream17writeRecordPrefixERN4llvm11raw_ostreamENS1_4GOFF10RecordTypeEmh.exit26.backedge, %.lr.ph
  %.01329 = phi i64 [ 0, %.lr.ph ], [ %52, %_ZN12_GLOBAL__N_111GOFFOstream17writeRecordPrefixERN4llvm11raw_ostreamENS1_4GOFF10RecordTypeEmh.exit26.backedge ]
  %.01428 = phi i64 [ %2, %.lr.ph ], [ %53, %_ZN12_GLOBAL__N_111GOFFOstream17writeRecordPrefixERN4llvm11raw_ostreamENS1_4GOFF10RecordTypeEmh.exit26.backedge ]
  %.val = load i64, ptr %4, align 8
  %47 = urem i64 %.val, 77
  %.not.i = icmp eq i64 %47, 0
  %48 = select i1 %.not.i, i64 77, i64 %47
  %spec.select = tail call i64 @llvm.umin.i64(i64 %48, i64 %.01428)
  %49 = load ptr, ptr %45, align 8
  %50 = getelementptr inbounds i8, ptr %1, i64 %.01329
  %51 = tail call noundef nonnull align 8 dereferenceable(48) ptr @_ZN4llvm11raw_ostream5writeEPKcm(ptr noundef nonnull align 8 dereferenceable(48) %49, ptr noundef %50, i64 noundef %spec.select) #10
  %52 = add i64 %spec.select, %.01329
  %53 = sub i64 %.01428, %spec.select
  %54 = load i64, ptr %4, align 8
  %55 = sub i64 %54, %spec.select
  store i64 %55, ptr %4, align 8
  %cond = icmp eq i64 %53, 0
  br i1 %cond, label %._crit_edge, label %56

56:                                               ; preds = %_ZN12_GLOBAL__N_111GOFFOstream17writeRecordPrefixERN4llvm11raw_ostreamENS1_4GOFF10RecordTypeEmh.exit26
  %57 = load ptr, ptr %45, align 8
  %58 = load i8, ptr %46, align 4
  %59 = shl i8 %58, 4
  %60 = icmp ugt i64 %55, 80
  %61 = zext i1 %60 to i8
  %62 = or disjoint i8 %59, %61
  %spec.select.i18 = or disjoint i8 %62, 2
  %63 = getelementptr inbounds nuw i8, ptr %57, i64 32
  %64 = load ptr, ptr %63, align 8
  %65 = getelementptr inbounds nuw i8, ptr %57, i64 24
  %66 = load ptr, ptr %65, align 8
  %.not.i.i19 = icmp ult ptr %64, %66
  br i1 %.not.i.i19, label %69, label %67

67:                                               ; preds = %56
  %68 = tail call noundef nonnull align 8 dereferenceable(48) ptr @_ZN4llvm11raw_ostream5writeEh(ptr noundef nonnull align 8 dereferenceable(48) %57, i8 noundef zeroext 3) #10
  br label %_ZN4llvm11raw_ostreamlsEh.exit.i20

69:                                               ; preds = %56
  %70 = getelementptr inbounds i8, ptr %64, i64 1
  store ptr %70, ptr %63, align 8
  store i8 3, ptr %64, align 1
  br label %_ZN4llvm11raw_ostreamlsEh.exit.i20

_ZN4llvm11raw_ostreamlsEh.exit.i20:               ; preds = %69, %67
  %.0.i.i21 = phi ptr [ %68, %67 ], [ %57, %69 ]
  %71 = getelementptr inbounds nuw i8, ptr %.0.i.i21, i64 32
  %72 = load ptr, ptr %71, align 8
  %73 = getelementptr inbounds nuw i8, ptr %.0.i.i21, i64 24
  %74 = load ptr, ptr %73, align 8
  %.not.i5.i22 = icmp ult ptr %72, %74
  br i1 %.not.i5.i22, label %77, label %75

75:                                               ; preds = %_ZN4llvm11raw_ostreamlsEh.exit.i20
  %76 = tail call noundef nonnull align 8 dereferenceable(48) ptr @_ZN4llvm11raw_ostream5writeEh(ptr noundef nonnull align 8 dereferenceable(48) %.0.i.i21, i8 noundef zeroext %spec.select.i18) #10
  br label %_ZN4llvm11raw_ostreamlsEh.exit7.i23

77:                                               ; preds = %_ZN4llvm11raw_ostreamlsEh.exit.i20
  %78 = getelementptr inbounds i8, ptr %72, i64 1
  store ptr %78, ptr %71, align 8
  store i8 %spec.select.i18, ptr %72, align 1
  br label %_ZN4llvm11raw_ostreamlsEh.exit7.i23

_ZN4llvm11raw_ostreamlsEh.exit7.i23:              ; preds = %77, %75
  %.0.i6.i24 = phi ptr [ %76, %75 ], [ %.0.i.i21, %77 ]
  %79 = getelementptr inbounds nuw i8, ptr %.0.i6.i24, i64 32
  %80 = load ptr, ptr %79, align 8
  %81 = getelementptr inbounds nuw i8, ptr %.0.i6.i24, i64 24
  %82 = load ptr, ptr %81, align 8
  %.not.i8.i25 = icmp ult ptr %80, %82
  br i1 %.not.i8.i25, label %85, label %83

83:                                               ; preds = %_ZN4llvm11raw_ostreamlsEh.exit7.i23
  %84 = tail call noundef nonnull align 8 dereferenceable(48) ptr @_ZN4llvm11raw_ostream5writeEh(ptr noundef nonnull align 8 dereferenceable(48) %.0.i6.i24, i8 noundef zeroext 0) #10
  br label %_ZN12_GLOBAL__N_111GOFFOstream17writeRecordPrefixERN4llvm11raw_ostreamENS1_4GOFF10RecordTypeEmh.exit26.backedge

85:                                               ; preds = %_ZN4llvm11raw_ostreamlsEh.exit7.i23
  %86 = getelementptr inbounds i8, ptr %80, i64 1
  store ptr %86, ptr %79, align 8
  store i8 0, ptr %80, align 1
  br label %_ZN12_GLOBAL__N_111GOFFOstream17writeRecordPrefixERN4llvm11raw_ostreamENS1_4GOFF10RecordTypeEmh.exit26.backedge

_ZN12_GLOBAL__N_111GOFFOstream17writeRecordPrefixERN4llvm11raw_ostreamENS1_4GOFF10RecordTypeEmh.exit26.backedge: ; preds = %85, %83
  br label %_ZN12_GLOBAL__N_111GOFFOstream17writeRecordPrefixERN4llvm11raw_ostreamENS1_4GOFF10RecordTypeEmh.exit26

._crit_edge:                                      ; preds = %_ZN12_GLOBAL__N_111GOFFOstream17writeRecordPrefixERN4llvm11raw_ostreamENS1_4GOFF10RecordTypeEmh.exit26, %44
  ret void
}